target datalayout = "e-m:e-p270:32:32-p271:32:32-p272:64:64-i64:64-i128:128-f80:128-n8:16:32:64-S128"
target triple = "x86_64-pc-linux-gnu"

@.str.14 = private unnamed_addr constant [4 x i8] c"log\00", align 1
@.str.15 = private unnamed_addr constant [10 x i8] c"LOG_DEBUG\00", align 1
@.str.16 = private unnamed_addr constant [12 x i8] c"LOG_VERBOSE\00", align 1
@.str.17 = private unnamed_addr constant [11 x i8] c"LOG_NOTICE\00", align 1
@.str.18 = private unnamed_addr constant [12 x i8] c"LOG_WARNING\00", align 1

; Function Attrs: nounwind uwtable
define dso_local void @luaRegisterLogFunction(ptr noundef %0) #0 {
  %2 = alloca ptr, align 8
  store ptr %0, ptr %2, align 8, !tbaa !5
  %3 = load ptr, ptr %2, align 8, !tbaa !5
  call void @lua_pushstring(ptr noundef %3, ptr noundef @.str.14)
  %4 = load ptr, ptr %2, align 8, !tbaa !5
  call void @lua_pushcclosure(ptr noundef %4, ptr noundef @luaLogCommand, i32 noundef 0)
  %5 = load ptr, ptr %2, align 8, !tbaa !5
  call void @lua_settable(ptr noundef %5, i32 noundef -3)
  %6 = load ptr, ptr %2, align 8, !tbaa !5
  call void @lua_pushstring(ptr noundef %6, ptr noundef @.str.15)
  %7 = load ptr, ptr %2, align 8, !tbaa !5
  call void @lua_pushnumber(ptr noundef %7, double noundef 0.000000e+00)
  %8 = load ptr, ptr %2, align 8, !tbaa !5
  call void @lua_settable(ptr noundef %8, i32 noundef -3)
  %9 = load ptr, ptr %2, align 8, !tbaa !5
  call void @lua_pushstring(ptr noundef %9, ptr noundef @.str.16)
  %10 = load ptr, ptr %2, align 8, !tbaa !5
  call void @lua_pushnumber(ptr noundef %10, double noundef 1.000000e+00)
  %11 = load ptr, ptr %2, align 8, !tbaa !5
  call void @lua_settable(ptr noundef %11, i32 noundef -3)
  %12 = load ptr, ptr %2, align 8, !tbaa !5
  call void @lua_pushstring(ptr noundef %12, ptr noundef @.str.17)
  %13 = load ptr, ptr %2, align 8, !tbaa !5
  call void @lua_pushnumber(ptr noundef %13, double noundef 2.000000e+00)
  %14 = load ptr, ptr %2, align 8, !tbaa !5
  call void @lua_settable(ptr noundef %14, i32 noundef -3)
  %15 = load ptr, ptr %2, align 8, !tbaa !5
  call void @lua_pushstring(ptr noundef %15, ptr noundef @.str.18)
  %16 = load ptr, ptr %2, align 8, !tbaa !5
  call void @lua_pushnumber(ptr noundef %16, double noundef 3.000000e+00)
  %17 = load ptr, ptr %2, align 8, !tbaa !5
  call void @lua_settable(ptr noundef %17, i32 noundef -3)
  ret void
}