; Function Attrs: nounwind uwtable
define dso_local void @luaRegisterLogFunction(ptr noundef %0) local_unnamed_addr #0 {
  tail call void @lua_pushstring(ptr noundef %0, ptr noundef nonnull @.str.14) #11
  tail call void @lua_pushcclosure(ptr noundef %0, ptr noundef nonnull @luaLogCommand, i32 noundef 0) #11
  tail call void @lua_settable(ptr noundef %0, i32 noundef -3) #11
  tail call void @lua_pushstring(ptr noundef %0, ptr noundef nonnull @.str.15) #11
  tail call void @lua_pushnumber(ptr noundef %0, double noundef 0.000000e+00) #11
  tail call void @lua_settable(ptr noundef %0, i32 noundef -3) #11
  tail call void @lua_pushstring(ptr noundef %0, ptr noundef nonnull @.str.16) #11
  tail call void @lua_pushnumber(ptr noundef %0, double noundef 1.000000e+00) #11
  tail call void @lua_settable(ptr noundef %0, i32 noundef -3) #11
  tail call void @lua_pushstring(ptr noundef %0, ptr noundef nonnull @.str.17) #11
  tail call void @lua_pushnumber(ptr noundef %0, double noundef 2.000000e+00) #11
  tail call void @lua_settable(ptr noundef %0, i32 noundef -3) #11
  tail call void @lua_pushstring(ptr noundef %0, ptr noundef nonnull @.str.18) #11
  tail call void @lua_pushnumber(ptr noundef %0, double noundef 3.000000e+00) #11
  tail call void @lua_settable(ptr noundef %0, i32 noundef -3) #11
  ret void
}